; Function Attrs: mustprogress nofree nounwind uwtable
define dso_local noundef zeroext i1 @_ZN5cmsys11SystemTools10FileExistsERKNSt7__cxx1112basic_stringIcSt11char_traitsIcESaIcEEE(ptr noundef nonnull readonly align 8 captures(none) dereferenceable(32) %0) local_unnamed_addr #3 align 2 {
  %2 = getelementptr inbounds nuw i8, ptr %0, i64 8
  %3 = load i64, ptr %2, align 8, !tbaa !18
  %4 = icmp eq i64 %3, 0
  br i1 %4, label %9, label %5

5:                                                ; preds = %1
  %6 = load ptr, ptr %0, align 8, !tbaa !21
  %7 = tail call i32 @access(ptr noundef %6, i32 noundef 4) #39
  %8 = icmp eq i32 %7, 0
  br label %9

9:                                                ; preds = %1, %5
  %.0 = phi i1 [ %8, %5 ], [ false, %1 ]
  ret i1 %.0
}